target datalayout = "e-m:e-p270:32:32-p271:32:32-p272:64:64-i64:64-i128:128-f80:128-n8:16:32:64-S128"
target triple = "x86_64-pc-linux-gnu"

%"class.datalog::table_base::iterator" = type { %class.ref.166 }
%class.ref.166 = type { ptr }

; Function Attrs: mustprogress nounwind uwtable
define linkonce_odr hidden noundef nonnull align 8 dereferenceable(12) ptr @_ZNK3refIN7datalog10table_base13iterator_coreEEdeEv(ptr noundef nonnull align 8 dereferenceable(8) %0) #6 comdat align 2 {
  %2 = alloca ptr, align 8
  store ptr %0, ptr %2, align 8, !tbaa !493
  %3 = load ptr, ptr %2, align 8
  %4 = getelementptr inbounds nuw %class.ref.166, ptr %3, i32 0, i32 0
  %5 = load ptr, ptr %4, align 8, !tbaa !495
  ret ptr %5
}

; Function Attrs: mustprogress uwtable
define linkonce_odr hidden noundef zeroext i1 @_ZNK7datalog10table_base8iteratoreqERKS1_(ptr noundef nonnull align 8 dereferenceable(8) %0, ptr noundef nonnull align 8 dereferenceable(8) %1) #4 comdat align 2 {
  %3 = alloca ptr, align 8
  %4 = alloca ptr, align 8
  store ptr %0, ptr %3, align 8, !tbaa !402
  store ptr %1, ptr %4, align 8, !tbaa !402
  %5 = load ptr, ptr %3, align 8
  %6 = getelementptr inbounds nuw %"class.datalog::table_base::iterator", ptr %5, i32 0, i32 0
  %7 = call noundef nonnull align 8 dereferenceable(12) ptr @_ZNK3refIN7datalog10table_base13iterator_coreEEdeEv(ptr noundef nonnull align 8 dereferenceable(8) %6)
  %8 = load ptr, ptr %4, align 8, !tbaa !402
  %9 = getelementptr inbounds nuw %"class.datalog::table_base::iterator", ptr %8, i32 0, i32 0
  %10 = call noundef nonnull align 8 dereferenceable(12) ptr @_ZNK3refIN7datalog10table_base13iterator_coreEEdeEv(ptr noundef nonnull align 8 dereferenceable(8) %9)
  %11 = load ptr, ptr %7, align 8, !tbaa !8
  %12 = getelementptr inbounds ptr, ptr %11, i64 5
  %13 = load ptr, ptr %12, align 8
  %14 = call noundef zeroext i1 %13(ptr noundef nonnull align 8 dereferenceable(12) %7, ptr noundef nonnull align 8 dereferenceable(12) %10)
  ret i1 %14
}

; Function Attrs: mustprogress uwtable
define hidden noundef zeroext i1 @_ZNK7datalog10table_base5emptyEv(ptr noundef nonnull align 8 dereferenceable(36) %0) unnamed_addr #4 align 2 personality ptr @__gxx_personality_v0 {
  %2 = alloca ptr, align 8
  %3 = alloca %"class.datalog::table_base::iterator", align 8
  %4 = alloca %"class.datalog::table_base::iterator", align 8
  %5 = alloca ptr, align 8
  %6 = alloca i32, align 4
  store ptr %0, ptr %2, align 8, !tbaa !10
  %7 = load ptr, ptr %2, align 8
  call void @llvm.lifetime.start.p0(i64 8, ptr %3) #3
  %8 = load ptr, ptr %7, align 8, !tbaa !8
  %9 = getelementptr inbounds ptr, ptr %8, i64 25
  %10 = load ptr, ptr %9, align 8
  call void %10(ptr dead_on_unwind writable sret(%"class.datalog::table_base::iterator") align 8 %3, ptr noundef nonnull align 8 dereferenceable(36) %7)
  call void @llvm.lifetime.start.p0(i64 8, ptr %4) #3
  %11 = load ptr, ptr %7, align 8, !tbaa !8
  %12 = getelementptr inbounds ptr, ptr %11, i64 26
  %13 = load ptr, ptr %12, align 8
  invoke void %13(ptr dead_on_unwind writable sret(%"class.datalog::table_base::iterator") align 8 %4, ptr noundef nonnull align 8 dereferenceable(36) %7)
          to label %14 unwind label %17

14:                                               ; preds = %1
  %15 = invoke noundef zeroext i1 @_ZNK7datalog10table_base8iteratoreqERKS1_(ptr noundef nonnull align 8 dereferenceable(8) %3, ptr noundef nonnull align 8 dereferenceable(8) %4)
          to label %16 unwind label %21

16:                                               ; preds = %14
  call void @_ZN7datalog10table_base8iteratorD2Ev(ptr noundef nonnull align 8 dereferenceable(8) %4) #3
  call void @llvm.lifetime.end.p0(i64 8, ptr %4) #3
  call void @_ZN7datalog10table_base8iteratorD2Ev(ptr noundef nonnull align 8 dereferenceable(8) %3) #3
  call void @llvm.lifetime.end.p0(i64 8, ptr %3) #3
  ret i1 %15

17:                                               ; preds = %1
  %18 = landingpad { ptr, i32 }
          cleanup
  %19 = extractvalue { ptr, i32 } %18, 0
  store ptr %19, ptr %5, align 8
  %20 = extractvalue { ptr, i32 } %18, 1
  store i32 %20, ptr %6, align 4
  br label %25

21:                                               ; preds = %14
  %22 = landingpad { ptr, i32 }
          cleanup
  %23 = extractvalue { ptr, i32 } %22, 0
  store ptr %23, ptr %5, align 8
  %24 = extractvalue { ptr, i32 } %22, 1
  store i32 %24, ptr %6, align 4
  call void @_ZN7datalog10table_base8iteratorD2Ev(ptr noundef nonnull align 8 dereferenceable(8) %4) #3
  br label %25

25:                                               ; preds = %21, %17
  call void @llvm.lifetime.end.p0(i64 8, ptr %4) #3
  call void @_ZN7datalog10table_base8iteratorD2Ev(ptr noundef nonnull align 8 dereferenceable(8) %3) #3
  call void @llvm.lifetime.end.p0(i64 8, ptr %3) #3
  br label %26

26:                                               ; preds = %25
  %27 = load ptr, ptr %5, align 8
  %28 = load i32, ptr %6, align 4
  %29 = insertvalue { ptr, i32 } poison, ptr %27, 0
  %30 = insertvalue { ptr, i32 } %29, i32 %28, 1
  resume { ptr, i32 } %30
}