; Function Attrs: mustprogress uwtable
define hidden noundef zeroext i1 @_ZNK7datalog10table_base5emptyEv(ptr noundef nonnull align 8 dereferenceable(36) %0) unnamed_addr #3 align 2 personality ptr @__gxx_personality_v0 {
  %2 = alloca %"class.datalog::table_base::iterator", align 8
  %3 = alloca %"class.datalog::table_base::iterator", align 8
  call void @llvm.lifetime.start.p0(i64 8, ptr nonnull %2) #24
  %4 = load ptr, ptr %0, align 8, !tbaa !3
  %5 = getelementptr inbounds nuw i8, ptr %4, i64 200
  %6 = load ptr, ptr %5, align 8
  call void %6(ptr dead_on_unwind nonnull writable sret(%"class.datalog::table_base::iterator") align 8 %2, ptr noundef nonnull align 8 dereferenceable(36) %0)
  call void @llvm.lifetime.start.p0(i64 8, ptr nonnull %3) #24
  %7 = load ptr, ptr %0, align 8, !tbaa !3
  %8 = getelementptr inbounds nuw i8, ptr %7, i64 208
  %9 = load ptr, ptr %8, align 8
  invoke void %9(ptr dead_on_unwind nonnull writable sret(%"class.datalog::table_base::iterator") align 8 %3, ptr noundef nonnull align 8 dereferenceable(36) %0)
          to label %10 unwind label %41

10:                                               ; preds = %1
  %11 = load ptr, ptr %2, align 8, !tbaa !357
  %12 = load ptr, ptr %3, align 8, !tbaa !357
  %13 = load ptr, ptr %11, align 8, !tbaa !3
  %14 = getelementptr inbounds nuw i8, ptr %13, i64 40
  %15 = load ptr, ptr %14, align 8
  %16 = invoke noundef zeroext i1 %15(ptr noundef nonnull align 8 dereferenceable(12) %11, ptr noundef nonnull align 8 dereferenceable(12) %12)
          to label %_ZNK7datalog10table_base8iteratoreqERKS1_.exit unwind label %43

_ZNK7datalog10table_base8iteratoreqERKS1_.exit:   ; preds = %10
  %17 = load ptr, ptr %3, align 8, !tbaa !357
  %.not.i.i.i = icmp eq ptr %17, null
  br i1 %.not.i.i.i, label %_ZN7datalog10table_base8iteratorD2Ev.exit, label %18

18:                                               ; preds = %_ZNK7datalog10table_base8iteratoreqERKS1_.exit
  %19 = getelementptr inbounds nuw i8, ptr %17, i64 8
  %20 = load i32, ptr %19, align 8, !tbaa !360
  %21 = add i32 %20, -1
  store i32 %21, ptr %19, align 8, !tbaa !360
  %22 = icmp eq i32 %21, 0
  br i1 %22, label %23, label %_ZN7datalog10table_base8iteratorD2Ev.exit

23:                                               ; preds = %18
  %24 = load ptr, ptr %17, align 8, !tbaa !3
  %25 = load ptr, ptr %24, align 8
  call void %25(ptr noundef nonnull align 8 dereferenceable(12) %17) #24
  invoke void @_ZN6memory10deallocateEPv(ptr noundef nonnull align 8 dereferenceable(12) %17)
          to label %_ZN7datalog10table_base8iteratorD2Ev.exit unwind label %26

26:                                               ; preds = %23
  %27 = landingpad { ptr, i32 }
          catch ptr null
  %28 = extractvalue { ptr, i32 } %27, 0
  call void @__clang_call_terminate(ptr %28) #27
  unreachable

_ZN7datalog10table_base8iteratorD2Ev.exit:        ; preds = %_ZNK7datalog10table_base8iteratoreqERKS1_.exit, %18, %23
  call void @llvm.lifetime.end.p0(i64 8, ptr nonnull %3) #24
  %29 = load ptr, ptr %2, align 8, !tbaa !357
  %.not.i.i.i4 = icmp eq ptr %29, null
  br i1 %.not.i.i.i4, label %_ZN7datalog10table_base8iteratorD2Ev.exit5, label %30

30:                                               ; preds = %_ZN7datalog10table_base8iteratorD2Ev.exit
  %31 = getelementptr inbounds nuw i8, ptr %29, i64 8
  %32 = load i32, ptr %31, align 8, !tbaa !360
  %33 = add i32 %32, -1
  store i32 %33, ptr %31, align 8, !tbaa !360
  %34 = icmp eq i32 %33, 0
  br i1 %34, label %35, label %_ZN7datalog10table_base8iteratorD2Ev.exit5

35:                                               ; preds = %30
  %36 = load ptr, ptr %29, align 8, !tbaa !3
  %37 = load ptr, ptr %36, align 8
  call void %37(ptr noundef nonnull align 8 dereferenceable(12) %29) #24
  invoke void @_ZN6memory10deallocateEPv(ptr noundef nonnull align 8 dereferenceable(12) %29)
          to label %_ZN7datalog10table_base8iteratorD2Ev.exit5 unwind label %38

38:                                               ; preds = %35
  %39 = landingpad { ptr, i32 }
          catch ptr null
  %40 = extractvalue { ptr, i32 } %39, 0
  call void @__clang_call_terminate(ptr %40) #27
  unreachable

_ZN7datalog10table_base8iteratorD2Ev.exit5:       ; preds = %_ZN7datalog10table_base8iteratorD2Ev.exit, %30, %35
  call void @llvm.lifetime.end.p0(i64 8, ptr nonnull %2) #24
  ret i1 %16

41:                                               ; preds = %1
  %42 = landingpad { ptr, i32 }
          cleanup
  br label %45

43:                                               ; preds = %10
  %44 = landingpad { ptr, i32 }
          cleanup
  call void @_ZN7datalog10table_base8iteratorD2Ev(ptr noundef nonnull align 8 dereferenceable(8) %3) #24
  br label %45

45:                                               ; preds = %43, %41
  %.pn = phi { ptr, i32 } [ %44, %43 ], [ %42, %41 ]
  call void @llvm.lifetime.end.p0(i64 8, ptr nonnull %3) #24
  call void @_ZN7datalog10table_base8iteratorD2Ev(ptr noundef nonnull align 8 dereferenceable(8) %2) #24
  call void @llvm.lifetime.end.p0(i64 8, ptr nonnull %2) #24
  resume { ptr, i32 } %.pn
}